(lp0
(S'elfflags'
p1
ccopy_reg
_reconstructor
p2
(cino.utils
SpaceList
p3
c__builtin__
list
p4
(lp5
S'-Os'
p6
aS'-Wl,--gc-sections'
p7
aS'-mmcu=atmega328p'
p8
atp9
Rp10
tp11
a(S'version.txt'
p12
S'/usr/share/arduino/lib/version.txt'
p13
tp14
a(S'cc'
p15
S'/usr/lib64/ccache/avr-gcc'
p16
tp17
a(S'build_dir'
p18
S'.build/uno'
p19
tp20
a(S'arduino_core_dir'
p21
S'/usr/share/arduino/hardware/arduino/cores/arduino'
p22
tp23
a(S'boards.txt'
p24
S'/usr/share/arduino/hardware/arduino/boards.txt'
p25
tp26
a(S'cxxflags'
p27
g2
(g3
g4
(lp28
S'-fno-exceptions'
p29
atp30
Rp31
tp32
a(S'arduino_variants_dir'
p33
S'/usr/share/arduino/hardware/arduino/variants'
p34
tp35
a(S'deps'
p36
g2
(g3
g4
(lp37
tp38
Rp39
tp40
a(S'ar'
p41
S'/usr/bin/avr-ar'
p42
tp43
a(S'names'
p44
(dp45
S'cpp'
p46
S'%s.cpp'
p47
sS'obj'
p48
S'%s.o'
p49
sg36
S'%s.d'
p50
sS'lib'
p51
S'lib%s.a'
p52
stp53
a(S'cflags'
p54
g2
(g3
g4
(lp55
g8
aS'-ffunction-sections'
p56
aS'-fdata-sections'
p57
aS'-g'
p58
ag6
aS'-w'
p59
aS'-DF_CPU=16000000L'
p60
aS'-DARDUINO=100'
p61
aS'-I/usr/share/arduino/hardware/arduino/cores/arduino'
p62
aS'-I/usr/share/arduino/hardware/arduino/variants/standard'
p63
atp64
Rp65
tp66
a(S'arduino_libraries_dir'
p67
S'/usr/share/arduino/libraries'
p68
tp69
a(S'arduino_lib_version'
p70
g2
(cino.environment
Version
p71
c__builtin__
tuple
p72
(I1
I0
tp73
tp74
Rp75
tp76
a(S'objcopy'
p77
S'/usr/bin/avr-objcopy'
p78
tp79
a(S'board_models'
p80
cino.environment
BoardModels
p81
((lp82
(lp83
S'uno'
p84
a(dp85
S'build'
p86
(dp87
S'core'
p88
S'arduino'
p89
sS'mcu'
p90
S'atmega328p'
p91
sS'f_cpu'
p92
S'16000000L'
p93
sS'variant'
p94
S'standard'
p95
ssS'bootloader'
p96
(dp97
S'extended_fuses'
p98
S'0x05'
p99
sS'high_fuses'
p100
S'0xde'
p101
sS'low_fuses'
p102
S'0xff'
p103
sS'lock_bits'
p104
S'0x0F'
p105
sS'file'
p106
S'optiboot_atmega328.hex'
p107
sS'path'
p108
S'optiboot'
p109
sS'unlock_bits'
p110
S'0x3F'
p111
ssS'name'
p112
S'Arduino Uno'
p113
sS'upload'
p114
(dp115
S'speed'
p116
S'115200'
p117
sS'maximum_size'
p118
S'32256'
p119
sS'protocol'
p120
S'arduino'
p121
ssaa(lp122
S'atmega328'
p123
a(dp124
S'build'
p125
(dp126
S'core'
p127
S'arduino'
p128
sS'mcu'
p129
S'atmega328p'
p130
sS'f_cpu'
p131
S'16000000L'
p132
sS'variant'
p133
S'standard'
p134
ssS'bootloader'
p135
(dp136
S'extended_fuses'
p137
S'0x05'
p138
sS'high_fuses'
p139
S'0xDA'
p140
sS'low_fuses'
p141
S'0xFF'
p142
sS'lock_bits'
p143
S'0x0F'
p144
sS'file'
p145
S'ATmegaBOOT_168_atmega328.hex'
p146
sS'path'
p147
S'atmega'
p148
sS'unlock_bits'
p149
S'0x3F'
p150
ssS'name'
p151
S'Arduino Duemilanove w/ ATmega328'
p152
sS'upload'
p153
(dp154
S'speed'
p155
S'57600'
p156
sS'maximum_size'
p157
S'30720'
p158
sS'protocol'
p159
S'arduino'
p160
ssaa(lp161
S'diecimila'
p162
a(dp163
S'build'
p164
(dp165
S'core'
p166
S'arduino'
p167
sS'mcu'
p168
S'atmega168'
p169
sS'f_cpu'
p170
S'16000000L'
p171
sS'variant'
p172
S'standard'
p173
ssS'bootloader'
p174
(dp175
S'extended_fuses'
p176
S'0x00'
p177
sS'high_fuses'
p178
S'0xdd'
p179
sS'low_fuses'
p180
S'0xff'
p181
sS'lock_bits'
p182
S'0x0F'
p183
sS'file'
p184
S'ATmegaBOOT_168_diecimila.hex'
p185
sS'path'
p186
S'atmega'
p187
sS'unlock_bits'
p188
S'0x3F'
p189
ssS'name'
p190
S'Arduino Diecimila or Duemilanove w/ ATmega168'
p191
sS'upload'
p192
(dp193
S'speed'
p194
S'19200'
p195
sS'maximum_size'
p196
S'14336'
p197
sS'protocol'
p198
S'arduino'
p199
ssaa(lp200
S'nano328'
p201
a(dp202
S'build'
p203
(dp204
S'core'
p205
S'arduino'
p206
sS'mcu'
p207
S'atmega328p'
p208
sS'f_cpu'
p209
S'16000000L'
p210
sS'variant'
p211
S'eightanaloginputs'
p212
ssS'bootloader'
p213
(dp214
S'extended_fuses'
p215
S'0x05'
p216
sS'high_fuses'
p217
S'0xDA'
p218
sS'low_fuses'
p219
S'0xFF'
p220
sS'lock_bits'
p221
S'0x0F'
p222
sS'file'
p223
S'ATmegaBOOT_168_atmega328.hex'
p224
sS'path'
p225
S'atmega'
p226
sS'unlock_bits'
p227
S'0x3F'
p228
ssS'name'
p229
S'Arduino Nano w/ ATmega328'
p230
sS'upload'
p231
(dp232
S'speed'
p233
S'57600'
p234
sS'maximum_size'
p235
S'30720'
p236
sS'protocol'
p237
S'arduino'
p238
ssaa(lp239
S'nano'
p240
a(dp241
S'build'
p242
(dp243
S'core'
p244
S'arduino'
p245
sS'mcu'
p246
S'atmega168'
p247
sS'f_cpu'
p248
S'16000000L'
p249
sS'variant'
p250
S'eightanaloginputs'
p251
ssS'bootloader'
p252
(dp253
S'extended_fuses'
p254
S'0x00'
p255
sS'high_fuses'
p256
S'0xdd'
p257
sS'low_fuses'
p258
S'0xff'
p259
sS'lock_bits'
p260
S'0x0F'
p261
sS'file'
p262
S'ATmegaBOOT_168_diecimila.hex'
p263
sS'path'
p264
S'atmega'
p265
sS'unlock_bits'
p266
S'0x3F'
p267
ssS'name'
p268
S'Arduino Nano w/ ATmega168'
p269
sS'upload'
p270
(dp271
S'speed'
p272
S'19200'
p273
sS'maximum_size'
p274
S'14336'
p275
sS'protocol'
p276
S'arduino'
p277
ssaa(lp278
S'mega2560'
p279
a(dp280
S'build'
p281
(dp282
S'core'
p283
S'arduino'
p284
sS'mcu'
p285
S'atmega2560'
p286
sS'f_cpu'
p287
S'16000000L'
p288
sS'variant'
p289
S'mega'
p290
ssS'bootloader'
p291
(dp292
S'extended_fuses'
p293
S'0xFD'
p294
sS'high_fuses'
p295
S'0xD8'
p296
sS'low_fuses'
p297
S'0xFF'
p298
sS'lock_bits'
p299
S'0x0F'
p300
sS'file'
p301
S'stk500boot_v2_mega2560.hex'
p302
sS'path'
p303
S'stk500v2'
p304
sS'unlock_bits'
p305
S'0x3F'
p306
ssS'name'
p307
S'Arduino Mega 2560 or Mega ADK'
p308
sS'upload'
p309
(dp310
S'speed'
p311
S'115200'
p312
sS'maximum_size'
p313
S'258048'
p314
sS'protocol'
p315
S'wiring'
p316
ssaa(lp317
S'mega'
p318
a(dp319
S'build'
p320
(dp321
S'core'
p322
S'arduino'
p323
sS'mcu'
p324
S'atmega1280'
p325
sS'f_cpu'
p326
S'16000000L'
p327
sS'variant'
p328
S'mega'
p329
ssS'bootloader'
p330
(dp331
S'extended_fuses'
p332
S'0xF5'
p333
sS'high_fuses'
p334
S'0xDA'
p335
sS'low_fuses'
p336
S'0xFF'
p337
sS'lock_bits'
p338
S'0x0F'
p339
sS'file'
p340
S'ATmegaBOOT_168_atmega1280.hex'
p341
sS'path'
p342
S'atmega'
p343
sS'unlock_bits'
p344
S'0x3F'
p345
ssS'name'
p346
S'Arduino Mega (ATmega1280)'
p347
sS'upload'
p348
(dp349
S'speed'
p350
S'57600'
p351
sS'maximum_size'
p352
S'126976'
p353
sS'protocol'
p354
S'arduino'
p355
ssaa(lp356
S'leonardo'
p357
a(dp358
S'build'
p359
(dp360
S'core'
p361
S'arduino'
p362
sS'f_cpu'
p363
S'16000000L'
p364
sS'vid'
p365
S'0x2341'
p366
sS'pid'
p367
S'0x8036'
p368
sS'variant'
p369
S'leonardo'
p370
sS'mcu'
p371
S'atmega32u4'
p372
ssS'bootloader'
p373
(dp374
S'extended_fuses'
p375
S'0xcb'
p376
sS'high_fuses'
p377
S'0xd8'
p378
sS'low_fuses'
p379
S'0xff'
p380
sS'lock_bits'
p381
S'0x2F'
p382
sS'file'
p383
S'Caterina-Leonardo.hex'
p384
sS'path'
p385
S'caterina'
p386
sS'unlock_bits'
p387
S'0x3F'
p388
ssS'name'
p389
S'Arduino Leonardo'
p390
sS'upload'
p391
(dp392
S'speed'
p393
S'57600'
p394
sS'maximum_size'
p395
S'28672'
p396
sS'protocol'
p397
S'avr109'
p398
sS'disable_flushing'
p399
S'true'
p400
ssaa(lp401
S'esplora'
p402
a(dp403
S'build'
p404
(dp405
S'core'
p406
S'arduino'
p407
sS'f_cpu'
p408
S'16000000L'
p409
sS'vid'
p410
S'0x2341'
p411
sS'pid'
p412
S'0x803C'
p413
sS'variant'
p414
S'leonardo'
p415
sS'mcu'
p416
S'atmega32u4'
p417
ssS'bootloader'
p418
(dp419
S'extended_fuses'
p420
S'0xcb'
p421
sS'high_fuses'
p422
S'0xd8'
p423
sS'low_fuses'
p424
S'0xff'
p425
sS'lock_bits'
p426
S'0x2F'
p427
sS'file'
p428
S'Caterina-Esplora.hex'
p429
sS'path'
p430
S'caterina'
p431
sS'unlock_bits'
p432
S'0x3F'
p433
ssS'name'
p434
S'Arduino Esplora'
p435
sS'upload'
p436
(dp437
S'speed'
p438
S'57600'
p439
sS'maximum_size'
p440
S'28672'
p441
sS'protocol'
p442
S'avr109'
p443
sS'disable_flushing'
p444
S'true'
p445
ssaa(lp446
S'micro'
p447
a(dp448
S'build'
p449
(dp450
S'core'
p451
S'arduino'
p452
sS'f_cpu'
p453
S'16000000L'
p454
sS'vid'
p455
S'0x2341'
p456
sS'pid'
p457
S'0x8037'
p458
sS'variant'
p459
S'micro'
p460
sS'mcu'
p461
S'atmega32u4'
p462
ssS'bootloader'
p463
(dp464
S'extended_fuses'
p465
S'0xcb'
p466
sS'high_fuses'
p467
S'0xd8'
p468
sS'low_fuses'
p469
S'0xff'
p470
sS'lock_bits'
p471
S'0x2F'
p472
sS'file'
p473
S'Caterina-Micro.hex'
p474
sS'path'
p475
S'caterina'
p476
sS'unlock_bits'
p477
S'0x3F'
p478
ssS'name'
p479
S'Arduino Micro'
p480
sS'upload'
p481
(dp482
S'speed'
p483
S'57600'
p484
sS'maximum_size'
p485
S'28672'
p486
sS'protocol'
p487
S'avr109'
p488
sS'disable_flushing'
p489
S'true'
p490
ssaa(lp491
S'mini328'
p492
a(dp493
S'build'
p494
(dp495
S'core'
p496
S'arduino'
p497
sS'mcu'
p498
S'atmega328p'
p499
sS'f_cpu'
p500
S'16000000L'
p501
sS'variant'
p502
S'eightanaloginputs'
p503
ssS'bootloader'
p504
(dp505
S'extended_fuses'
p506
S'0x05'
p507
sS'high_fuses'
p508
S'0xd8'
p509
sS'low_fuses'
p510
S'0xff'
p511
sS'lock_bits'
p512
S'0x0F'
p513
sS'file'
p514
S'optiboot_atmega328-Mini.hex'
p515
sS'path'
p516
S'optiboot'
p517
sS'unlock_bits'
p518
S'0x3F'
p519
ssS'name'
p520
S'Arduino Mini w/ ATmega328'
p521
sS'upload'
p522
(dp523
S'speed'
p524
S'115200'
p525
sS'maximum_size'
p526
S'28672'
p527
sS'protocol'
p528
S'arduino'
p529
ssaa(lp530
S'mini'
p531
a(dp532
S'build'
p533
(dp534
S'core'
p535
S'arduino'
p536
sS'mcu'
p537
S'atmega168'
p538
sS'f_cpu'
p539
S'16000000L'
p540
sS'variant'
p541
S'eightanaloginputs'
p542
ssS'bootloader'
p543
(dp544
S'extended_fuses'
p545
S'0x00'
p546
sS'high_fuses'
p547
S'0xdd'
p548
sS'low_fuses'
p549
S'0xff'
p550
sS'lock_bits'
p551
S'0x0F'
p552
sS'file'
p553
S'ATmegaBOOT_168_ng.hex'
p554
sS'path'
p555
S'atmega'
p556
sS'unlock_bits'
p557
S'0x3F'
p558
ssS'name'
p559
S'Arduino Mini w/ ATmega168'
p560
sS'upload'
p561
(dp562
S'speed'
p563
S'19200'
p564
sS'maximum_size'
p565
S'14336'
p566
sS'protocol'
p567
S'arduino'
p568
ssaa(lp569
S'ethernet'
p570
a(dp571
S'build'
p572
(dp573
S'f_cpu'
p574
S'16000000L'
p575
sS'mcu'
p576
S'atmega328p'
p577
sS'variant'
p578
S'standard'
p579
sS'core'
p580
S'arduino'
p581
ssS'bootloader'
p582
(dp583
S'extended_fuses'
p584
S'0x05'
p585
sS'high_fuses'
p586
S'0xde'
p587
sS'low_fuses'
p588
S'0xff'
p589
sS'lock_bits'
p590
S'0x0F'
p591
sS'file'
p592
S'optiboot_atmega328.hex'
p593
sS'path'
p594
S'optiboot'
p595
sS'unlock_bits'
p596
S'0x3F'
p597
ssS'name'
p598
S'Arduino Ethernet'
p599
sS'upload'
p600
(dp601
S'speed'
p602
S'115200'
p603
sS'maximum_size'
p604
S'32256'
p605
sS'protocol'
p606
S'arduino'
p607
ssaa(lp608
S'fio'
p609
a(dp610
S'build'
p611
(dp612
S'core'
p613
S'arduino'
p614
sS'mcu'
p615
S'atmega328p'
p616
sS'f_cpu'
p617
S'8000000L'
p618
sS'variant'
p619
S'eightanaloginputs'
p620
ssS'bootloader'
p621
(dp622
S'extended_fuses'
p623
S'0x05'
p624
sS'high_fuses'
p625
S'0xDA'
p626
sS'low_fuses'
p627
S'0xFF'
p628
sS'lock_bits'
p629
S'0x0F'
p630
sS'file'
p631
S'ATmegaBOOT_168_atmega328_pro_8MHz.hex'
p632
sS'path'
p633
S'arduino:atmega'
p634
sS'unlock_bits'
p635
S'0x3F'
p636
ssS'name'
p637
S'Arduino Fio'
p638
sS'upload'
p639
(dp640
S'speed'
p641
S'57600'
p642
sS'maximum_size'
p643
S'30720'
p644
sS'protocol'
p645
S'arduino'
p646
ssaa(lp647
S'bt328'
p648
a(dp649
S'build'
p650
(dp651
S'core'
p652
S'arduino'
p653
sS'mcu'
p654
S'atmega328p'
p655
sS'f_cpu'
p656
S'16000000L'
p657
sS'variant'
p658
S'eightanaloginputs'
p659
ssS'bootloader'
p660
(dp661
S'extended_fuses'
p662
S'0x05'
p663
sS'high_fuses'
p664
S'0xd8'
p665
sS'low_fuses'
p666
S'0xff'
p667
sS'lock_bits'
p668
S'0x0F'
p669
sS'file'
p670
S'ATmegaBOOT_168_atmega328_bt.hex'
p671
sS'path'
p672
S'bt'
p673
sS'unlock_bits'
p674
S'0x3F'
p675
ssS'name'
p676
S'Arduino BT w/ ATmega328'
p677
sS'upload'
p678
(dp679
S'speed'
p680
S'19200'
p681
sS'maximum_size'
p682
S'28672'
p683
sS'protocol'
p684
S'arduino'
p685
sS'disable_flushing'
p686
S'true'
p687
ssaa(lp688
S'bt'
p689
a(dp690
S'build'
p691
(dp692
S'core'
p693
S'arduino'
p694
sS'mcu'
p695
S'atmega168'
p696
sS'f_cpu'
p697
S'16000000L'
p698
sS'variant'
p699
S'eightanaloginputs'
p700
ssS'bootloader'
p701
(dp702
S'extended_fuses'
p703
S'0x00'
p704
sS'high_fuses'
p705
S'0xdd'
p706
sS'low_fuses'
p707
S'0xff'
p708
sS'lock_bits'
p709
S'0x0F'
p710
sS'file'
p711
S'ATmegaBOOT_168.hex'
p712
sS'path'
p713
S'bt'
p714
sS'unlock_bits'
p715
S'0x3F'
p716
ssS'name'
p717
S'Arduino BT w/ ATmega168'
p718
sS'upload'
p719
(dp720
S'speed'
p721
S'19200'
p722
sS'maximum_size'
p723
S'14336'
p724
sS'protocol'
p725
S'arduino'
p726
sS'disable_flushing'
p727
S'true'
p728
ssaa(lp729
S'LilyPadUSB'
p730
a(dp731
S'build'
p732
(dp733
S'core'
p734
S'arduino'
p735
sS'f_cpu'
p736
S'8000000L'
p737
sS'vid'
p738
S'0x1B4F'
p739
sS'pid'
p740
S'0x9208'
p741
sS'variant'
p742
S'leonardo'
p743
sS'mcu'
p744
S'atmega32u4'
p745
ssS'bootloader'
p746
(dp747
S'extended_fuses'
p748
S'0xce'
p749
sS'high_fuses'
p750
S'0xd8'
p751
sS'low_fuses'
p752
S'0xff'
p753
sS'lock_bits'
p754
S'0x2F'
p755
sS'file'
p756
S'Caterina-LilyPadUSB.hex'
p757
sS'path'
p758
S'caterina-LilyPadUSB'
p759
sS'unlock_bits'
p760
S'0x3F'
p761
ssS'name'
p762
S'LilyPad Arduino USB'
p763
sS'upload'
p764
(dp765
S'speed'
p766
S'57600'
p767
sS'maximum_size'
p768
S'28672'
p769
sS'protocol'
p770
S'avr109'
p771
sS'disable_flushing'
p772
S'true'
p773
ssaa(lp774
S'lilypad328'
p775
a(dp776
S'build'
p777
(dp778
S'core'
p779
S'arduino'
p780
sS'mcu'
p781
S'atmega328p'
p782
sS'f_cpu'
p783
S'8000000L'
p784
sS'variant'
p785
S'standard'
p786
ssS'bootloader'
p787
(dp788
S'extended_fuses'
p789
S'0x05'
p790
sS'high_fuses'
p791
S'0xDA'
p792
sS'low_fuses'
p793
S'0xFF'
p794
sS'lock_bits'
p795
S'0x0F'
p796
sS'file'
p797
S'ATmegaBOOT_168_atmega328_pro_8MHz.hex'
p798
sS'path'
p799
S'atmega'
p800
sS'unlock_bits'
p801
S'0x3F'
p802
ssS'name'
p803
S'LilyPad Arduino w/ ATmega328'
p804
sS'upload'
p805
(dp806
S'speed'
p807
S'57600'
p808
sS'maximum_size'
p809
S'30720'
p810
sS'protocol'
p811
S'arduino'
p812
ssaa(lp813
S'lilypad'
p814
a(dp815
S'build'
p816
(dp817
S'core'
p818
S'arduino'
p819
sS'mcu'
p820
S'atmega168'
p821
sS'f_cpu'
p822
S'8000000L'
p823
sS'variant'
p824
S'standard'
p825
ssS'bootloader'
p826
(dp827
S'extended_fuses'
p828
S'0x00'
p829
sS'high_fuses'
p830
S'0xdd'
p831
sS'low_fuses'
p832
S'0xe2'
p833
sS'lock_bits'
p834
S'0x0F'
p835
sS'file'
p836
S'LilyPadBOOT_168.hex'
p837
sS'path'
p838
S'lilypad'
p839
sS'unlock_bits'
p840
S'0x3F'
p841
ssS'name'
p842
S'LilyPad Arduino w/ ATmega168'
p843
sS'upload'
p844
(dp845
S'speed'
p846
S'19200'
p847
sS'maximum_size'
p848
S'14336'
p849
sS'protocol'
p850
S'arduino'
p851
ssaa(lp852
S'pro5v328'
p853
a(dp854
S'build'
p855
(dp856
S'core'
p857
S'arduino'
p858
sS'mcu'
p859
S'atmega328p'
p860
sS'f_cpu'
p861
S'16000000L'
p862
sS'variant'
p863
S'standard'
p864
ssS'bootloader'
p865
(dp866
S'extended_fuses'
p867
S'0x05'
p868
sS'high_fuses'
p869
S'0xDA'
p870
sS'low_fuses'
p871
S'0xFF'
p872
sS'lock_bits'
p873
S'0x0F'
p874
sS'file'
p875
S'ATmegaBOOT_168_atmega328.hex'
p876
sS'path'
p877
S'atmega'
p878
sS'unlock_bits'
p879
S'0x3F'
p880
ssS'name'
p881
S'Arduino Pro or Pro Mini (5V, 16 MHz) w/ ATmega328'
p882
sS'upload'
p883
(dp884
S'speed'
p885
S'57600'
p886
sS'maximum_size'
p887
S'30720'
p888
sS'protocol'
p889
S'arduino'
p890
ssaa(lp891
S'pro5v'
p892
a(dp893
S'build'
p894
(dp895
S'core'
p896
S'arduino'
p897
sS'mcu'
p898
S'atmega168'
p899
sS'f_cpu'
p900
S'16000000L'
p901
sS'variant'
p902
S'standard'
p903
ssS'bootloader'
p904
(dp905
S'extended_fuses'
p906
S'0x00'
p907
sS'high_fuses'
p908
S'0xdd'
p909
sS'low_fuses'
p910
S'0xff'
p911
sS'lock_bits'
p912
S'0x0F'
p913
sS'file'
p914
S'ATmegaBOOT_168_diecimila.hex'
p915
sS'path'
p916
S'atmega'
p917
sS'unlock_bits'
p918
S'0x3F'
p919
ssS'name'
p920
S'Arduino Pro or Pro Mini (5V, 16 MHz) w/ ATmega168'
p921
sS'upload'
p922
(dp923
S'speed'
p924
S'19200'
p925
sS'maximum_size'
p926
S'14336'
p927
sS'protocol'
p928
S'arduino'
p929
ssaa(lp930
S'pro328'
p931
a(dp932
S'build'
p933
(dp934
S'core'
p935
S'arduino'
p936
sS'mcu'
p937
S'atmega328p'
p938
sS'f_cpu'
p939
S'8000000L'
p940
sS'variant'
p941
S'standard'
p942
ssS'bootloader'
p943
(dp944
S'extended_fuses'
p945
S'0x05'
p946
sS'high_fuses'
p947
S'0xDA'
p948
sS'low_fuses'
p949
S'0xFF'
p950
sS'lock_bits'
p951
S'0x0F'
p952
sS'file'
p953
S'ATmegaBOOT_168_atmega328_pro_8MHz.hex'
p954
sS'path'
p955
S'atmega'
p956
sS'unlock_bits'
p957
S'0x3F'
p958
ssS'name'
p959
S'Arduino Pro or Pro Mini (3.3V, 8 MHz) w/ ATmega328'
p960
sS'upload'
p961
(dp962
S'speed'
p963
S'57600'
p964
sS'maximum_size'
p965
S'30720'
p966
sS'protocol'
p967
S'arduino'
p968
ssaa(lp969
S'pro'
p970
a(dp971
S'build'
p972
(dp973
S'core'
p974
S'arduino'
p975
sS'mcu'
p976
S'atmega168'
p977
sS'f_cpu'
p978
S'8000000L'
p979
sS'variant'
p980
S'standard'
p981
ssS'bootloader'
p982
(dp983
S'extended_fuses'
p984
S'0x00'
p985
sS'high_fuses'
p986
S'0xdd'
p987
sS'low_fuses'
p988
S'0xc6'
p989
sS'lock_bits'
p990
S'0x0F'
p991
sS'file'
p992
S'ATmegaBOOT_168_pro_8MHz.hex'
p993
sS'path'
p994
S'atmega'
p995
sS'unlock_bits'
p996
S'0x3F'
p997
ssS'name'
p998
S'Arduino Pro or Pro Mini (3.3V, 8 MHz) w/ ATmega168'
p999
sS'upload'
p1000
(dp1001
S'speed'
p1002
S'19200'
p1003
sS'maximum_size'
p1004
S'14336'
p1005
sS'protocol'
p1006
S'arduino'
p1007
ssaa(lp1008
S'atmega168'
p1009
a(dp1010
S'build'
p1011
(dp1012
S'core'
p1013
S'arduino'
p1014
sS'mcu'
p1015
S'atmega168'
p1016
sS'f_cpu'
p1017
S'16000000L'
p1018
sS'variant'
p1019
S'standard'
p1020
ssS'bootloader'
p1021
(dp1022
S'extended_fuses'
p1023
S'0x00'
p1024
sS'high_fuses'
p1025
S'0xdd'
p1026
sS'low_fuses'
p1027
S'0xff'
p1028
sS'lock_bits'
p1029
S'0x0F'
p1030
sS'file'
p1031
S'ATmegaBOOT_168_ng.hex'
p1032
sS'path'
p1033
S'atmega'
p1034
sS'unlock_bits'
p1035
S'0x3F'
p1036
ssS'name'
p1037
S'Arduino NG or older w/ ATmega168'
p1038
sS'upload'
p1039
(dp1040
S'speed'
p1041
S'19200'
p1042
sS'maximum_size'
p1043
S'14336'
p1044
sS'protocol'
p1045
S'arduino'
p1046
ssaa(lp1047
S'atmega8'
p1048
a(dp1049
S'build'
p1050
(dp1051
S'core'
p1052
S'arduino'
p1053
sS'mcu'
p1054
S'atmega8'
p1055
sS'f_cpu'
p1056
S'16000000L'
p1057
sS'variant'
p1058
S'standard'
p1059
ssS'bootloader'
p1060
(dp1061
S'high_fuses'
p1062
S'0xca'
p1063
sS'low_fuses'
p1064
S'0xdf'
p1065
sS'lock_bits'
p1066
S'0x0F'
p1067
sS'file'
p1068
S'ATmegaBOOT-prod-firmware-2009-11-07.hex'
p1069
sS'path'
p1070
S'atmega8'
p1071
sS'unlock_bits'
p1072
S'0x3F'
p1073
ssS'name'
p1074
S'Arduino NG or older w/ ATmega8'
p1075
sS'upload'
p1076
(dp1077
S'speed'
p1078
S'19200'
p1079
sS'maximum_size'
p1080
S'7168'
p1081
sS'protocol'
p1082
S'arduino'
p1083
ssaa(lp1084
S'robotControl'
p1085
a(dp1086
S'build'
p1087
(dp1088
S'core'
p1089
S'robot'
p1090
sS'f_cpu'
p1091
S'16000000L'
p1092
sS'vid'
p1093
S'0x2341'
p1094
sS'pid'
p1095
S'0x8038'
p1096
sS'variant'
p1097
S'robot_control'
p1098
sS'mcu'
p1099
S'atmega32u4'
p1100
ssS'bootloader'
p1101
(dp1102
S'extended_fuses'
p1103
S'0xcb'
p1104
sS'high_fuses'
p1105
S'0xd8'
p1106
sS'low_fuses'
p1107
S'0xff'
p1108
sS'lock_bits'
p1109
S'0x2F'
p1110
sS'file'
p1111
S'Caterina-Robot-Control.hex'
p1112
sS'path'
p1113
S'caterina-Arduino_Robot'
p1114
sS'unlock_bits'
p1115
S'0x3F'
p1116
ssS'name'
p1117
S'Arduino Robot Control'
p1118
sS'upload'
p1119
(dp1120
S'speed'
p1121
S'57600'
p1122
sS'maximum_size'
p1123
S'28672'
p1124
sS'protocol'
p1125
S'avr109'
p1126
sS'disable_flushing'
p1127
S'true'
p1128
ssaa(lp1129
S'robotMotor'
p1130
a(dp1131
S'build'
p1132
(dp1133
S'core'
p1134
S'robot'
p1135
sS'f_cpu'
p1136
S'16000000L'
p1137
sS'vid'
p1138
S'0x2341'
p1139
sS'pid'
p1140
S'0x8039'
p1141
sS'variant'
p1142
S'robot_motor'
p1143
sS'mcu'
p1144
S'atmega32u4'
p1145
ssS'bootloader'
p1146
(dp1147
S'extended_fuses'
p1148
S'0xcb'
p1149
sS'high_fuses'
p1150
S'0xd8'
p1151
sS'low_fuses'
p1152
S'0xff'
p1153
sS'lock_bits'
p1154
S'0x2F'
p1155
sS'file'
p1156
S'Caterina-Robot-Motor.hex'
p1157
sS'path'
p1158
S'caterina-Arduino_Robot'
p1159
sS'unlock_bits'
p1160
S'0x3F'
p1161
ssS'name'
p1162
S'Arduino Robot Motor'
p1163
sS'upload'
p1164
(dp1165
S'speed'
p1166
S'57600'
p1167
sS'maximum_size'
p1168
S'28672'
p1169
sS'protocol'
p1170
S'avr109'
p1171
sS'disable_flushing'
p1172
S'true'
p1173
ssaatp1174
Rp1175
(dp1176
S'default'
p1177
S'uno'
p1178
sbtp1179
a(S'cxx'
p1180
S'/usr/lib64/ccache/avr-g++'
p1181
tp1182
a.