(lp0
(S'elfflags'
p1
ccopy_reg
_reconstructor
p2
(cino.utils
SpaceList
p3
c__builtin__
list
p4
(lp5
S'-Os'
p6
aS'-Wl,--gc-sections'
p7
aS'-mmcu=atmega328p'
p8
atp9
Rp10
tp11
a(S'version.txt'
p12
S'/usr/share/arduino/lib/version.txt'
p13
tp14
a(S'used_libs'
p15
(lp16
S'lib/u2'
p17
aS'lib/IReceive'
p18
aS'lib/ISendCustom'
p19
aS'lib/comm'
p20
aS'lib/user_activity'
p21
aS'lib/rfm73'
p22
aS'lib/ISend'
p23
aS'lib/CallMe'
p24
aS'lib/SoftTimer'
p25
aS'lib/Task'
p26
aS'/usr/share/arduino/hardware/arduino/cores/arduino'
p27
atp28
a(S'cc'
p29
S'/usr/lib64/ccache/avr-gcc'
p30
tp31
a(S'build_dir'
p32
S'.build/pro328'
p33
tp34
a(S'arduino_core_dir'
p35
g27
tp36
a(S'boards.txt'
p37
S'/usr/share/arduino/hardware/arduino/boards.txt'
p38
tp39
a(S'cxxflags'
p40
g2
(g3
g4
(lp41
S'-fno-exceptions'
p42
atp43
Rp44
tp45
a(S'arduino_variants_dir'
p46
S'/usr/share/arduino/hardware/arduino/variants'
p47
tp48
a(S'deps'
p49
g2
(g3
g4
(lp50
S'.build/pro328/src/dependencies.d'
p51
aS'.build/pro328/arduino/dependencies.d'
p52
aS'.build/pro328/user_activity/dependencies.d'
p53
aS'.build/pro328/u2/dependencies.d'
p54
aS'.build/pro328/Task/dependencies.d'
p55
aS'.build/pro328/comm/dependencies.d'
p56
aS'.build/pro328/rfm73/dependencies.d'
p57
aS'.build/pro328/SoftTimer/dependencies.d'
p58
aS'.build/pro328/CallMe/dependencies.d'
p59
aS'.build/pro328/IReceive/dependencies.d'
p60
aS'.build/pro328/ISendCustom/dependencies.d'
p61
aS'.build/pro328/ISend/dependencies.d'
p62
atp63
Rp64
tp65
a(S'ar'
p66
S'/usr/bin/avr-ar'
p67
tp68
a(S'names'
p69
(dp70
S'cpp'
p71
S'%s.cpp'
p72
sS'obj'
p73
S'%s.o'
p74
sS'deps'
p75
S'%s.d'
p76
sS'lib'
p77
S'lib%s.a'
p78
stp79
a(S'cflags'
p80
g2
(g3
g4
(lp81
g8
aS'-ffunction-sections'
p82
aS'-fdata-sections'
p83
aS'-g'
p84
ag6
aS'-w'
p85
aS'-DF_CPU=8000000L'
p86
aS'-DARDUINO=100'
p87
aS'-I/usr/share/arduino/hardware/arduino/cores/arduino'
p88
aS'-I/usr/share/arduino/hardware/arduino/variants/standard'
p89
aS'-Ilib/u2'
p90
aS'-Ilib/IReceive'
p91
aS'-Ilib/ISendCustom'
p92
aS'-Ilib/comm'
p93
aS'-Ilib/user_activity'
p94
aS'-Ilib/rfm73'
p95
aS'-Ilib/ISend'
p96
aS'-Ilib/CallMe'
p97
aS'-Ilib/SoftTimer'
p98
aS'-Ilib/Task'
p99
aS'-I/usr/share/arduino/hardware/arduino/cores/arduino'
p100
aS'-I/usr/share/arduino/hardware/arduino/cores/arduino/avr-libc'
p101
atp102
Rp103
tp104
a(S'arduino_libraries_dir'
p105
S'/usr/share/arduino/libraries'
p106
tp107
a(S'arduino_lib_version'
p108
g2
(cino.environment
Version
p109
c__builtin__
tuple
p110
(I1
I0
tp111
tp112
Rp113
tp114
a(S'objcopy'
p115
S'/usr/bin/avr-objcopy'
p116
tp117
a(S'board_models'
p118
cino.environment
BoardModels
p119
((lp120
(lp121
S'uno'
p122
a(dp123
S'bootloader'
p124
(dp125
S'extended_fuses'
p126
S'0x05'
p127
sS'high_fuses'
p128
S'0xde'
p129
sS'low_fuses'
p130
S'0xff'
p131
sS'lock_bits'
p132
S'0x0F'
p133
sS'file'
p134
S'optiboot_atmega328.hex'
p135
sS'path'
p136
S'optiboot'
p137
sS'unlock_bits'
p138
S'0x3F'
p139
ssS'build'
p140
(dp141
S'core'
p142
S'arduino'
p143
sS'mcu'
p144
S'atmega328p'
p145
sS'f_cpu'
p146
S'16000000L'
p147
sS'variant'
p148
S'standard'
p149
ssS'name'
p150
S'Arduino Uno'
p151
sS'upload'
p152
(dp153
S'speed'
p154
S'115200'
p155
sS'maximum_size'
p156
S'32256'
p157
sS'protocol'
p158
S'arduino'
p159
ssaa(lp160
S'atmega328'
p161
a(dp162
S'bootloader'
p163
(dp164
S'extended_fuses'
p165
S'0x05'
p166
sS'high_fuses'
p167
S'0xDA'
p168
sS'low_fuses'
p169
S'0xFF'
p170
sS'lock_bits'
p171
S'0x0F'
p172
sS'file'
p173
S'ATmegaBOOT_168_atmega328.hex'
p174
sS'path'
p175
S'atmega'
p176
sS'unlock_bits'
p177
S'0x3F'
p178
ssS'build'
p179
(dp180
S'core'
p181
S'arduino'
p182
sS'mcu'
p183
S'atmega328p'
p184
sS'f_cpu'
p185
S'16000000L'
p186
sS'variant'
p187
S'standard'
p188
ssS'name'
p189
S'Arduino Duemilanove w/ ATmega328'
p190
sS'upload'
p191
(dp192
S'speed'
p193
S'57600'
p194
sS'maximum_size'
p195
S'30720'
p196
sS'protocol'
p197
S'arduino'
p198
ssaa(lp199
S'diecimila'
p200
a(dp201
S'bootloader'
p202
(dp203
S'extended_fuses'
p204
S'0x00'
p205
sS'high_fuses'
p206
S'0xdd'
p207
sS'low_fuses'
p208
S'0xff'
p209
sS'lock_bits'
p210
S'0x0F'
p211
sS'file'
p212
S'ATmegaBOOT_168_diecimila.hex'
p213
sS'path'
p214
S'atmega'
p215
sS'unlock_bits'
p216
S'0x3F'
p217
ssS'build'
p218
(dp219
S'core'
p220
S'arduino'
p221
sS'mcu'
p222
S'atmega168'
p223
sS'f_cpu'
p224
S'16000000L'
p225
sS'variant'
p226
S'standard'
p227
ssS'name'
p228
S'Arduino Diecimila or Duemilanove w/ ATmega168'
p229
sS'upload'
p230
(dp231
S'speed'
p232
S'19200'
p233
sS'maximum_size'
p234
S'14336'
p235
sS'protocol'
p236
S'arduino'
p237
ssaa(lp238
S'nano328'
p239
a(dp240
S'bootloader'
p241
(dp242
S'extended_fuses'
p243
S'0x05'
p244
sS'high_fuses'
p245
S'0xDA'
p246
sS'low_fuses'
p247
S'0xFF'
p248
sS'lock_bits'
p249
S'0x0F'
p250
sS'file'
p251
S'ATmegaBOOT_168_atmega328.hex'
p252
sS'path'
p253
S'atmega'
p254
sS'unlock_bits'
p255
S'0x3F'
p256
ssS'build'
p257
(dp258
S'core'
p259
S'arduino'
p260
sS'mcu'
p261
S'atmega328p'
p262
sS'f_cpu'
p263
S'16000000L'
p264
sS'variant'
p265
S'eightanaloginputs'
p266
ssS'name'
p267
S'Arduino Nano w/ ATmega328'
p268
sS'upload'
p269
(dp270
S'speed'
p271
S'57600'
p272
sS'maximum_size'
p273
S'30720'
p274
sS'protocol'
p275
S'arduino'
p276
ssaa(lp277
S'nano'
p278
a(dp279
S'bootloader'
p280
(dp281
S'extended_fuses'
p282
S'0x00'
p283
sS'high_fuses'
p284
S'0xdd'
p285
sS'low_fuses'
p286
S'0xff'
p287
sS'lock_bits'
p288
S'0x0F'
p289
sS'file'
p290
S'ATmegaBOOT_168_diecimila.hex'
p291
sS'path'
p292
S'atmega'
p293
sS'unlock_bits'
p294
S'0x3F'
p295
ssS'build'
p296
(dp297
S'core'
p298
S'arduino'
p299
sS'mcu'
p300
S'atmega168'
p301
sS'f_cpu'
p302
S'16000000L'
p303
sS'variant'
p304
S'eightanaloginputs'
p305
ssS'name'
p306
S'Arduino Nano w/ ATmega168'
p307
sS'upload'
p308
(dp309
S'speed'
p310
S'19200'
p311
sS'maximum_size'
p312
S'14336'
p313
sS'protocol'
p314
S'arduino'
p315
ssaa(lp316
S'mega2560'
p317
a(dp318
S'bootloader'
p319
(dp320
S'extended_fuses'
p321
S'0xFD'
p322
sS'high_fuses'
p323
S'0xD8'
p324
sS'low_fuses'
p325
S'0xFF'
p326
sS'lock_bits'
p327
S'0x0F'
p328
sS'file'
p329
S'stk500boot_v2_mega2560.hex'
p330
sS'path'
p331
S'stk500v2'
p332
sS'unlock_bits'
p333
S'0x3F'
p334
ssS'build'
p335
(dp336
S'core'
p337
S'arduino'
p338
sS'mcu'
p339
S'atmega2560'
p340
sS'f_cpu'
p341
S'16000000L'
p342
sS'variant'
p343
S'mega'
p344
ssS'name'
p345
S'Arduino Mega 2560 or Mega ADK'
p346
sS'upload'
p347
(dp348
S'speed'
p349
S'115200'
p350
sS'maximum_size'
p351
S'258048'
p352
sS'protocol'
p353
S'wiring'
p354
ssaa(lp355
S'mega'
p356
a(dp357
S'bootloader'
p358
(dp359
S'extended_fuses'
p360
S'0xF5'
p361
sS'high_fuses'
p362
S'0xDA'
p363
sS'low_fuses'
p364
S'0xFF'
p365
sS'lock_bits'
p366
S'0x0F'
p367
sS'file'
p368
S'ATmegaBOOT_168_atmega1280.hex'
p369
sS'path'
p370
S'atmega'
p371
sS'unlock_bits'
p372
S'0x3F'
p373
ssS'build'
p374
(dp375
S'core'
p376
S'arduino'
p377
sS'mcu'
p378
S'atmega1280'
p379
sS'f_cpu'
p380
S'16000000L'
p381
sS'variant'
p382
S'mega'
p383
ssS'name'
p384
S'Arduino Mega (ATmega1280)'
p385
sS'upload'
p386
(dp387
S'speed'
p388
S'57600'
p389
sS'maximum_size'
p390
S'126976'
p391
sS'protocol'
p392
S'arduino'
p393
ssaa(lp394
S'leonardo'
p395
a(dp396
S'bootloader'
p397
(dp398
S'extended_fuses'
p399
S'0xcb'
p400
sS'high_fuses'
p401
S'0xd8'
p402
sS'low_fuses'
p403
S'0xff'
p404
sS'lock_bits'
p405
S'0x2F'
p406
sS'file'
p407
S'Caterina-Leonardo.hex'
p408
sS'path'
p409
S'caterina'
p410
sS'unlock_bits'
p411
S'0x3F'
p412
ssS'build'
p413
(dp414
S'core'
p415
S'arduino'
p416
sS'f_cpu'
p417
S'16000000L'
p418
sS'vid'
p419
S'0x2341'
p420
sS'pid'
p421
S'0x8036'
p422
sS'variant'
p423
S'leonardo'
p424
sS'mcu'
p425
S'atmega32u4'
p426
ssS'name'
p427
S'Arduino Leonardo'
p428
sS'upload'
p429
(dp430
S'speed'
p431
S'57600'
p432
sS'maximum_size'
p433
S'28672'
p434
sS'protocol'
p435
S'avr109'
p436
sS'disable_flushing'
p437
S'true'
p438
ssaa(lp439
S'esplora'
p440
a(dp441
S'bootloader'
p442
(dp443
S'extended_fuses'
p444
S'0xcb'
p445
sS'high_fuses'
p446
S'0xd8'
p447
sS'low_fuses'
p448
S'0xff'
p449
sS'lock_bits'
p450
S'0x2F'
p451
sS'file'
p452
S'Caterina-Esplora.hex'
p453
sS'path'
p454
S'caterina'
p455
sS'unlock_bits'
p456
S'0x3F'
p457
ssS'build'
p458
(dp459
S'core'
p460
S'arduino'
p461
sS'f_cpu'
p462
S'16000000L'
p463
sS'vid'
p464
S'0x2341'
p465
sS'pid'
p466
S'0x803C'
p467
sS'variant'
p468
S'leonardo'
p469
sS'mcu'
p470
S'atmega32u4'
p471
ssS'name'
p472
S'Arduino Esplora'
p473
sS'upload'
p474
(dp475
S'speed'
p476
S'57600'
p477
sS'maximum_size'
p478
S'28672'
p479
sS'protocol'
p480
S'avr109'
p481
sS'disable_flushing'
p482
S'true'
p483
ssaa(lp484
S'micro'
p485
a(dp486
S'bootloader'
p487
(dp488
S'extended_fuses'
p489
S'0xcb'
p490
sS'high_fuses'
p491
S'0xd8'
p492
sS'low_fuses'
p493
S'0xff'
p494
sS'lock_bits'
p495
S'0x2F'
p496
sS'file'
p497
S'Caterina-Micro.hex'
p498
sS'path'
p499
S'caterina'
p500
sS'unlock_bits'
p501
S'0x3F'
p502
ssS'build'
p503
(dp504
S'core'
p505
S'arduino'
p506
sS'f_cpu'
p507
S'16000000L'
p508
sS'vid'
p509
S'0x2341'
p510
sS'pid'
p511
S'0x8037'
p512
sS'variant'
p513
S'micro'
p514
sS'mcu'
p515
S'atmega32u4'
p516
ssS'name'
p517
S'Arduino Micro'
p518
sS'upload'
p519
(dp520
S'speed'
p521
S'57600'
p522
sS'maximum_size'
p523
S'28672'
p524
sS'protocol'
p525
S'avr109'
p526
sS'disable_flushing'
p527
S'true'
p528
ssaa(lp529
S'mini328'
p530
a(dp531
S'bootloader'
p532
(dp533
S'extended_fuses'
p534
S'0x05'
p535
sS'high_fuses'
p536
S'0xd8'
p537
sS'low_fuses'
p538
S'0xff'
p539
sS'lock_bits'
p540
S'0x0F'
p541
sS'file'
p542
S'optiboot_atmega328-Mini.hex'
p543
sS'path'
p544
S'optiboot'
p545
sS'unlock_bits'
p546
S'0x3F'
p547
ssS'build'
p548
(dp549
S'core'
p550
S'arduino'
p551
sS'mcu'
p552
S'atmega328p'
p553
sS'f_cpu'
p554
S'16000000L'
p555
sS'variant'
p556
S'eightanaloginputs'
p557
ssS'name'
p558
S'Arduino Mini w/ ATmega328'
p559
sS'upload'
p560
(dp561
S'speed'
p562
S'115200'
p563
sS'maximum_size'
p564
S'28672'
p565
sS'protocol'
p566
S'arduino'
p567
ssaa(lp568
S'mini'
p569
a(dp570
S'bootloader'
p571
(dp572
S'extended_fuses'
p573
S'0x00'
p574
sS'high_fuses'
p575
S'0xdd'
p576
sS'low_fuses'
p577
S'0xff'
p578
sS'lock_bits'
p579
S'0x0F'
p580
sS'file'
p581
S'ATmegaBOOT_168_ng.hex'
p582
sS'path'
p583
S'atmega'
p584
sS'unlock_bits'
p585
S'0x3F'
p586
ssS'build'
p587
(dp588
S'core'
p589
S'arduino'
p590
sS'mcu'
p591
S'atmega168'
p592
sS'f_cpu'
p593
S'16000000L'
p594
sS'variant'
p595
S'eightanaloginputs'
p596
ssS'name'
p597
S'Arduino Mini w/ ATmega168'
p598
sS'upload'
p599
(dp600
S'speed'
p601
S'19200'
p602
sS'maximum_size'
p603
S'14336'
p604
sS'protocol'
p605
S'arduino'
p606
ssaa(lp607
S'ethernet'
p608
a(dp609
S'bootloader'
p610
(dp611
S'extended_fuses'
p612
S'0x05'
p613
sS'high_fuses'
p614
S'0xde'
p615
sS'low_fuses'
p616
S'0xff'
p617
sS'lock_bits'
p618
S'0x0F'
p619
sS'file'
p620
S'optiboot_atmega328.hex'
p621
sS'path'
p622
S'optiboot'
p623
sS'unlock_bits'
p624
S'0x3F'
p625
ssS'build'
p626
(dp627
S'f_cpu'
p628
S'16000000L'
p629
sS'mcu'
p630
S'atmega328p'
p631
sS'variant'
p632
S'standard'
p633
sS'core'
p634
S'arduino'
p635
ssS'name'
p636
S'Arduino Ethernet'
p637
sS'upload'
p638
(dp639
S'speed'
p640
S'115200'
p641
sS'maximum_size'
p642
S'32256'
p643
sS'protocol'
p644
S'arduino'
p645
ssaa(lp646
S'fio'
p647
a(dp648
S'bootloader'
p649
(dp650
S'extended_fuses'
p651
S'0x05'
p652
sS'high_fuses'
p653
S'0xDA'
p654
sS'low_fuses'
p655
S'0xFF'
p656
sS'lock_bits'
p657
S'0x0F'
p658
sS'file'
p659
S'ATmegaBOOT_168_atmega328_pro_8MHz.hex'
p660
sS'path'
p661
S'arduino:atmega'
p662
sS'unlock_bits'
p663
S'0x3F'
p664
ssS'build'
p665
(dp666
S'core'
p667
S'arduino'
p668
sS'mcu'
p669
S'atmega328p'
p670
sS'f_cpu'
p671
S'8000000L'
p672
sS'variant'
p673
S'eightanaloginputs'
p674
ssS'name'
p675
S'Arduino Fio'
p676
sS'upload'
p677
(dp678
S'speed'
p679
S'57600'
p680
sS'maximum_size'
p681
S'30720'
p682
sS'protocol'
p683
S'arduino'
p684
ssaa(lp685
S'bt328'
p686
a(dp687
S'bootloader'
p688
(dp689
S'extended_fuses'
p690
S'0x05'
p691
sS'high_fuses'
p692
S'0xd8'
p693
sS'low_fuses'
p694
S'0xff'
p695
sS'lock_bits'
p696
S'0x0F'
p697
sS'file'
p698
S'ATmegaBOOT_168_atmega328_bt.hex'
p699
sS'path'
p700
S'bt'
p701
sS'unlock_bits'
p702
S'0x3F'
p703
ssS'build'
p704
(dp705
S'core'
p706
S'arduino'
p707
sS'mcu'
p708
S'atmega328p'
p709
sS'f_cpu'
p710
S'16000000L'
p711
sS'variant'
p712
S'eightanaloginputs'
p713
ssS'name'
p714
S'Arduino BT w/ ATmega328'
p715
sS'upload'
p716
(dp717
S'speed'
p718
S'19200'
p719
sS'maximum_size'
p720
S'28672'
p721
sS'protocol'
p722
S'arduino'
p723
sS'disable_flushing'
p724
S'true'
p725
ssaa(lp726
S'bt'
p727
a(dp728
S'bootloader'
p729
(dp730
S'extended_fuses'
p731
S'0x00'
p732
sS'high_fuses'
p733
S'0xdd'
p734
sS'low_fuses'
p735
S'0xff'
p736
sS'lock_bits'
p737
S'0x0F'
p738
sS'file'
p739
S'ATmegaBOOT_168.hex'
p740
sS'path'
p741
S'bt'
p742
sS'unlock_bits'
p743
S'0x3F'
p744
ssS'build'
p745
(dp746
S'core'
p747
S'arduino'
p748
sS'mcu'
p749
S'atmega168'
p750
sS'f_cpu'
p751
S'16000000L'
p752
sS'variant'
p753
S'eightanaloginputs'
p754
ssS'name'
p755
S'Arduino BT w/ ATmega168'
p756
sS'upload'
p757
(dp758
S'speed'
p759
S'19200'
p760
sS'maximum_size'
p761
S'14336'
p762
sS'protocol'
p763
S'arduino'
p764
sS'disable_flushing'
p765
S'true'
p766
ssaa(lp767
S'LilyPadUSB'
p768
a(dp769
S'bootloader'
p770
(dp771
S'extended_fuses'
p772
S'0xce'
p773
sS'high_fuses'
p774
S'0xd8'
p775
sS'low_fuses'
p776
S'0xff'
p777
sS'lock_bits'
p778
S'0x2F'
p779
sS'file'
p780
S'Caterina-LilyPadUSB.hex'
p781
sS'path'
p782
S'caterina-LilyPadUSB'
p783
sS'unlock_bits'
p784
S'0x3F'
p785
ssS'build'
p786
(dp787
S'core'
p788
S'arduino'
p789
sS'f_cpu'
p790
S'8000000L'
p791
sS'vid'
p792
S'0x1B4F'
p793
sS'pid'
p794
S'0x9208'
p795
sS'variant'
p796
S'leonardo'
p797
sS'mcu'
p798
S'atmega32u4'
p799
ssS'name'
p800
S'LilyPad Arduino USB'
p801
sS'upload'
p802
(dp803
S'speed'
p804
S'57600'
p805
sS'maximum_size'
p806
S'28672'
p807
sS'protocol'
p808
S'avr109'
p809
sS'disable_flushing'
p810
S'true'
p811
ssaa(lp812
S'lilypad328'
p813
a(dp814
S'bootloader'
p815
(dp816
S'extended_fuses'
p817
S'0x05'
p818
sS'high_fuses'
p819
S'0xDA'
p820
sS'low_fuses'
p821
S'0xFF'
p822
sS'lock_bits'
p823
S'0x0F'
p824
sS'file'
p825
S'ATmegaBOOT_168_atmega328_pro_8MHz.hex'
p826
sS'path'
p827
S'atmega'
p828
sS'unlock_bits'
p829
S'0x3F'
p830
ssS'build'
p831
(dp832
S'core'
p833
S'arduino'
p834
sS'mcu'
p835
S'atmega328p'
p836
sS'f_cpu'
p837
S'8000000L'
p838
sS'variant'
p839
S'standard'
p840
ssS'name'
p841
S'LilyPad Arduino w/ ATmega328'
p842
sS'upload'
p843
(dp844
S'speed'
p845
S'57600'
p846
sS'maximum_size'
p847
S'30720'
p848
sS'protocol'
p849
S'arduino'
p850
ssaa(lp851
S'lilypad'
p852
a(dp853
S'bootloader'
p854
(dp855
S'extended_fuses'
p856
S'0x00'
p857
sS'high_fuses'
p858
S'0xdd'
p859
sS'low_fuses'
p860
S'0xe2'
p861
sS'lock_bits'
p862
S'0x0F'
p863
sS'file'
p864
S'LilyPadBOOT_168.hex'
p865
sS'path'
p866
S'lilypad'
p867
sS'unlock_bits'
p868
S'0x3F'
p869
ssS'build'
p870
(dp871
S'core'
p872
S'arduino'
p873
sS'mcu'
p874
S'atmega168'
p875
sS'f_cpu'
p876
S'8000000L'
p877
sS'variant'
p878
S'standard'
p879
ssS'name'
p880
S'LilyPad Arduino w/ ATmega168'
p881
sS'upload'
p882
(dp883
S'speed'
p884
S'19200'
p885
sS'maximum_size'
p886
S'14336'
p887
sS'protocol'
p888
S'arduino'
p889
ssaa(lp890
S'pro5v328'
p891
a(dp892
S'bootloader'
p893
(dp894
S'extended_fuses'
p895
S'0x05'
p896
sS'high_fuses'
p897
S'0xDA'
p898
sS'low_fuses'
p899
S'0xFF'
p900
sS'lock_bits'
p901
S'0x0F'
p902
sS'file'
p903
S'ATmegaBOOT_168_atmega328.hex'
p904
sS'path'
p905
S'atmega'
p906
sS'unlock_bits'
p907
S'0x3F'
p908
ssS'build'
p909
(dp910
S'core'
p911
S'arduino'
p912
sS'mcu'
p913
S'atmega328p'
p914
sS'f_cpu'
p915
S'16000000L'
p916
sS'variant'
p917
S'standard'
p918
ssS'name'
p919
S'Arduino Pro or Pro Mini (5V, 16 MHz) w/ ATmega328'
p920
sS'upload'
p921
(dp922
S'speed'
p923
S'57600'
p924
sS'maximum_size'
p925
S'30720'
p926
sS'protocol'
p927
S'arduino'
p928
ssaa(lp929
S'pro5v'
p930
a(dp931
S'bootloader'
p932
(dp933
S'extended_fuses'
p934
S'0x00'
p935
sS'high_fuses'
p936
S'0xdd'
p937
sS'low_fuses'
p938
S'0xff'
p939
sS'lock_bits'
p940
S'0x0F'
p941
sS'file'
p942
S'ATmegaBOOT_168_diecimila.hex'
p943
sS'path'
p944
S'atmega'
p945
sS'unlock_bits'
p946
S'0x3F'
p947
ssS'build'
p948
(dp949
S'core'
p950
S'arduino'
p951
sS'mcu'
p952
S'atmega168'
p953
sS'f_cpu'
p954
S'16000000L'
p955
sS'variant'
p956
S'standard'
p957
ssS'name'
p958
S'Arduino Pro or Pro Mini (5V, 16 MHz) w/ ATmega168'
p959
sS'upload'
p960
(dp961
S'speed'
p962
S'19200'
p963
sS'maximum_size'
p964
S'14336'
p965
sS'protocol'
p966
S'arduino'
p967
ssaa(lp968
S'pro328'
p969
a(dp970
S'bootloader'
p971
(dp972
S'extended_fuses'
p973
S'0x05'
p974
sS'high_fuses'
p975
S'0xDA'
p976
sS'low_fuses'
p977
S'0xFF'
p978
sS'lock_bits'
p979
S'0x0F'
p980
sS'file'
p981
S'ATmegaBOOT_168_atmega328_pro_8MHz.hex'
p982
sS'path'
p983
S'atmega'
p984
sS'unlock_bits'
p985
S'0x3F'
p986
ssS'build'
p987
(dp988
S'core'
p989
S'arduino'
p990
sS'mcu'
p991
S'atmega328p'
p992
sS'f_cpu'
p993
S'8000000L'
p994
sS'variant'
p995
S'standard'
p996
ssS'name'
p997
S'Arduino Pro or Pro Mini (3.3V, 8 MHz) w/ ATmega328'
p998
sS'upload'
p999
(dp1000
S'speed'
p1001
S'57600'
p1002
sS'maximum_size'
p1003
S'30720'
p1004
sS'protocol'
p1005
S'arduino'
p1006
ssaa(lp1007
S'pro'
p1008
a(dp1009
S'bootloader'
p1010
(dp1011
S'extended_fuses'
p1012
S'0x00'
p1013
sS'high_fuses'
p1014
S'0xdd'
p1015
sS'low_fuses'
p1016
S'0xc6'
p1017
sS'lock_bits'
p1018
S'0x0F'
p1019
sS'file'
p1020
S'ATmegaBOOT_168_pro_8MHz.hex'
p1021
sS'path'
p1022
S'atmega'
p1023
sS'unlock_bits'
p1024
S'0x3F'
p1025
ssS'build'
p1026
(dp1027
S'core'
p1028
S'arduino'
p1029
sS'mcu'
p1030
S'atmega168'
p1031
sS'f_cpu'
p1032
S'8000000L'
p1033
sS'variant'
p1034
S'standard'
p1035
ssS'name'
p1036
S'Arduino Pro or Pro Mini (3.3V, 8 MHz) w/ ATmega168'
p1037
sS'upload'
p1038
(dp1039
S'speed'
p1040
S'19200'
p1041
sS'maximum_size'
p1042
S'14336'
p1043
sS'protocol'
p1044
S'arduino'
p1045
ssaa(lp1046
S'atmega168'
p1047
a(dp1048
S'bootloader'
p1049
(dp1050
S'extended_fuses'
p1051
S'0x00'
p1052
sS'high_fuses'
p1053
S'0xdd'
p1054
sS'low_fuses'
p1055
S'0xff'
p1056
sS'lock_bits'
p1057
S'0x0F'
p1058
sS'file'
p1059
S'ATmegaBOOT_168_ng.hex'
p1060
sS'path'
p1061
S'atmega'
p1062
sS'unlock_bits'
p1063
S'0x3F'
p1064
ssS'build'
p1065
(dp1066
S'core'
p1067
S'arduino'
p1068
sS'mcu'
p1069
S'atmega168'
p1070
sS'f_cpu'
p1071
S'16000000L'
p1072
sS'variant'
p1073
S'standard'
p1074
ssS'name'
p1075
S'Arduino NG or older w/ ATmega168'
p1076
sS'upload'
p1077
(dp1078
S'speed'
p1079
S'19200'
p1080
sS'maximum_size'
p1081
S'14336'
p1082
sS'protocol'
p1083
S'arduino'
p1084
ssaa(lp1085
S'atmega8'
p1086
a(dp1087
S'bootloader'
p1088
(dp1089
S'high_fuses'
p1090
S'0xca'
p1091
sS'low_fuses'
p1092
S'0xdf'
p1093
sS'lock_bits'
p1094
S'0x0F'
p1095
sS'file'
p1096
S'ATmegaBOOT-prod-firmware-2009-11-07.hex'
p1097
sS'path'
p1098
S'atmega8'
p1099
sS'unlock_bits'
p1100
S'0x3F'
p1101
ssS'build'
p1102
(dp1103
S'core'
p1104
S'arduino'
p1105
sS'mcu'
p1106
S'atmega8'
p1107
sS'f_cpu'
p1108
S'16000000L'
p1109
sS'variant'
p1110
S'standard'
p1111
ssS'name'
p1112
S'Arduino NG or older w/ ATmega8'
p1113
sS'upload'
p1114
(dp1115
S'speed'
p1116
S'19200'
p1117
sS'maximum_size'
p1118
S'7168'
p1119
sS'protocol'
p1120
S'arduino'
p1121
ssaa(lp1122
S'robotControl'
p1123
a(dp1124
S'bootloader'
p1125
(dp1126
S'extended_fuses'
p1127
S'0xcb'
p1128
sS'high_fuses'
p1129
S'0xd8'
p1130
sS'low_fuses'
p1131
S'0xff'
p1132
sS'lock_bits'
p1133
S'0x2F'
p1134
sS'file'
p1135
S'Caterina-Robot-Control.hex'
p1136
sS'path'
p1137
S'caterina-Arduino_Robot'
p1138
sS'unlock_bits'
p1139
S'0x3F'
p1140
ssS'build'
p1141
(dp1142
S'core'
p1143
S'robot'
p1144
sS'f_cpu'
p1145
S'16000000L'
p1146
sS'vid'
p1147
S'0x2341'
p1148
sS'pid'
p1149
S'0x8038'
p1150
sS'variant'
p1151
S'robot_control'
p1152
sS'mcu'
p1153
S'atmega32u4'
p1154
ssS'name'
p1155
S'Arduino Robot Control'
p1156
sS'upload'
p1157
(dp1158
S'speed'
p1159
S'57600'
p1160
sS'maximum_size'
p1161
S'28672'
p1162
sS'protocol'
p1163
S'avr109'
p1164
sS'disable_flushing'
p1165
S'true'
p1166
ssaa(lp1167
S'robotMotor'
p1168
a(dp1169
S'bootloader'
p1170
(dp1171
S'extended_fuses'
p1172
S'0xcb'
p1173
sS'high_fuses'
p1174
S'0xd8'
p1175
sS'low_fuses'
p1176
S'0xff'
p1177
sS'lock_bits'
p1178
S'0x2F'
p1179
sS'file'
p1180
S'Caterina-Robot-Motor.hex'
p1181
sS'path'
p1182
S'caterina-Arduino_Robot'
p1183
sS'unlock_bits'
p1184
S'0x3F'
p1185
ssS'build'
p1186
(dp1187
S'core'
p1188
S'robot'
p1189
sS'f_cpu'
p1190
S'16000000L'
p1191
sS'vid'
p1192
S'0x2341'
p1193
sS'pid'
p1194
S'0x8039'
p1195
sS'variant'
p1196
S'robot_motor'
p1197
sS'mcu'
p1198
S'atmega32u4'
p1199
ssS'name'
p1200
S'Arduino Robot Motor'
p1201
sS'upload'
p1202
(dp1203
S'speed'
p1204
S'57600'
p1205
sS'maximum_size'
p1206
S'28672'
p1207
sS'protocol'
p1208
S'avr109'
p1209
sS'disable_flushing'
p1210
S'true'
p1211
ssaatp1212
Rp1213
(dp1214
S'default'
p1215
S'uno'
p1216
sbtp1217
a(S'cxx'
p1218
S'/usr/lib64/ccache/avr-g++'
p1219
tp1220
a.